; Function Attrs: nounwind uwtable
define ptr @l___private_Lean_Elab_GuardMsgs_0__Lean_Elab_Tactic_GuardMsgs_messageToStringWithoutPos___lambda__2(ptr noundef %0, ptr readnone captures(none) %1, ptr noundef %2) local_unnamed_addr #0 {
lean_nat_eq.exit:
  %3 = load ptr, ptr @l___private_Lean_Elab_GuardMsgs_0__Lean_Elab_Tactic_GuardMsgs_messageToStringWithoutPos___lambda__2___closed__1, align 8, !tbaa !4
  %4 = getelementptr i8, ptr %0, i64 8
  %.val = load i64, ptr %4, align 8, !tbaa !11
  %5 = shl i64 %.val, 1
  %6 = add i64 %5, -1
  %.not = icmp eq i64 %6, 1
  br i1 %.not, label %.sink.split, label %lean_dec.exit

lean_dec.exit:                                    ; preds = %lean_nat_eq.exit
  %7 = inttoptr i64 %6 to ptr
  %8 = tail call ptr @lean_string_utf8_prev(ptr noundef nonnull %0, ptr noundef nonnull %7) #7
  %9 = tail call i32 @lean_string_utf8_get(ptr noundef nonnull %0, ptr noundef %8) #7
  %10 = ptrtoint ptr %8 to i64
  %11 = and i64 %10, 1
  %.not39 = icmp eq i64 %11, 0
  br i1 %.not39, label %12, label %lean_dec.exit33

12:                                               ; preds = %lean_dec.exit
  %13 = load i32, ptr %8, align 4, !tbaa !8
  %14 = icmp sgt i32 %13, 1
  br i1 %14, label %15, label %17, !prof !13

15:                                               ; preds = %12
  %16 = add nsw i32 %13, -1
  store i32 %16, ptr %8, align 4, !tbaa !8
  br label %lean_dec.exit33

17:                                               ; preds = %12
  %.not.i35 = icmp eq i32 %13, 0
  br i1 %.not.i35, label %lean_dec.exit33, label %18

18:                                               ; preds = %17
  tail call void @lean_dec_ref_cold(ptr noundef nonnull %8) #7
  br label %lean_dec.exit33

lean_dec.exit33:                                  ; preds = %18, %17, %15, %lean_dec.exit
  %.not40 = icmp eq i32 %9, 10
  br i1 %.not40, label %21, label %.sink.split

.sink.split:                                      ; preds = %lean_nat_eq.exit, %lean_dec.exit33
  %19 = load ptr, ptr @l___private_Lean_Elab_GuardMsgs_0__Lean_Elab_Tactic_GuardMsgs_messageToStringWithoutPos___lambda__2___closed__2, align 8, !tbaa !4
  %20 = tail call ptr @lean_string_append(ptr noundef nonnull %0, ptr noundef %19) #7
  br label %21

21:                                               ; preds = %.sink.split, %lean_dec.exit33
  %.sink = phi ptr [ %0, %lean_dec.exit33 ], [ %20, %.sink.split ]
  %22 = tail call ptr @lean_apply_3(ptr noundef %3, ptr noundef %.sink, ptr noundef nonnull inttoptr (i64 1 to ptr), ptr noundef %2) #7
  ret ptr %22
}